target datalayout = "e-m:e-p270:32:32-p271:32:32-p272:64:64-i64:64-i128:128-f80:128-n8:16:32:64-S128"
target triple = "x86_64-pc-linux-gnu"

%"class.std::__cxx11::basic_string" = type { %"struct.std::__cxx11::basic_string<char>::_Alloc_hider", i64, %union.anon }
%"struct.std::__cxx11::basic_string<char>::_Alloc_hider" = type { ptr }
%union.anon = type { i64, [8 x i8] }
%"class.std::filesystem::__cxx11::path" = type { %"class.std::__cxx11::basic_string", %"struct.std::filesystem::__cxx11::path::_List" }
%"struct.std::filesystem::__cxx11::path::_List" = type { %"class.std::unique_ptr.39" }
%"class.std::unique_ptr.39" = type { %"struct.std::__uniq_ptr_data.40" }
%"struct.std::__uniq_ptr_data.40" = type { %"class.std::__uniq_ptr_impl.41" }
%"class.std::__uniq_ptr_impl.41" = type { %"class.std::tuple.42" }
%"class.std::tuple.42" = type { %"struct.std::_Tuple_impl.43" }
%"struct.std::_Tuple_impl.43" = type { %"struct.std::_Head_base.46" }
%"struct.std::_Head_base.46" = type { ptr }

@.str.38 = private unnamed_addr constant [2 x i8] c"w\00", align 1
@.str.39 = private unnamed_addr constant [61 x i8] c"# Output of %s is written in intervals of %d time step%s.\0A#\0A\00", align 1
@.str.40 = private unnamed_addr constant [2 x i8] c"s\00", align 1
@.str.41 = private unnamed_addr constant [1 x i8] zeroinitializer, align 1

; Function Attrs: mustprogress uwtable
define internal noundef ptr @_ZL16open_output_filePKciS0_(ptr noundef %0, i32 noundef %1, ptr noundef %2) #3 personality ptr @__gxx_personality_v0 {
  %4 = alloca ptr, align 8
  %5 = alloca i32, align 4
  %6 = alloca ptr, align 8
  %7 = alloca ptr, align 8
  %8 = alloca %"class.std::filesystem::__cxx11::path", align 8
  %9 = alloca ptr, align 8
  %10 = alloca i32, align 4
  store ptr %0, ptr %4, align 8, !tbaa !11
  store i32 %1, ptr %5, align 4, !tbaa !159
  store ptr %2, ptr %6, align 8, !tbaa !11
  call void @llvm.lifetime.start.p0(i64 8, ptr %7) #4
  call void @llvm.lifetime.start.p0(i64 40, ptr %8) #4
  call void @_ZNSt10filesystem7__cxx114pathC2IPKcS1_EERKT_NS1_6formatE(ptr noundef nonnull align 8 dereferenceable(40) %8, ptr noundef nonnull align 8 dereferenceable(8) %4, i8 noundef zeroext 2)
  %11 = invoke noundef ptr @_Z10gmx_ffopenRKNSt10filesystem7__cxx114pathEPKc(ptr noundef nonnull align 8 dereferenceable(40) %8, ptr noundef @.str.38)
          to label %12 unwind label %21

12:                                               ; preds = %3
  store ptr %11, ptr %7, align 8, !tbaa !272
  call void @_ZNSt10filesystem7__cxx114pathD2Ev(ptr noundef nonnull align 8 dereferenceable(40) %8) #4
  call void @llvm.lifetime.end.p0(i64 40, ptr %8) #4
  %13 = load ptr, ptr %7, align 8, !tbaa !272
  %14 = load ptr, ptr %6, align 8, !tbaa !11
  %15 = load i32, ptr %5, align 4, !tbaa !159
  %16 = load i32, ptr %5, align 4, !tbaa !159
  %17 = icmp sgt i32 %16, 1
  %18 = select i1 %17, ptr @.str.40, ptr @.str.41
  %19 = call i32 (ptr, ptr, ...) @fprintf(ptr noundef %13, ptr noundef @.str.39, ptr noundef %14, i32 noundef %15, ptr noundef %18) #4
  %20 = load ptr, ptr %7, align 8, !tbaa !272
  call void @llvm.lifetime.end.p0(i64 8, ptr %7) #4
  ret ptr %20

21:                                               ; preds = %3
  %22 = landingpad { ptr, i32 }
          cleanup
  %23 = extractvalue { ptr, i32 } %22, 0
  store ptr %23, ptr %9, align 8
  %24 = extractvalue { ptr, i32 } %22, 1
  store i32 %24, ptr %10, align 4
  call void @_ZNSt10filesystem7__cxx114pathD2Ev(ptr noundef nonnull align 8 dereferenceable(40) %8) #4
  call void @llvm.lifetime.end.p0(i64 40, ptr %8) #4
  call void @llvm.lifetime.end.p0(i64 8, ptr %7) #4
  br label %25

25:                                               ; preds = %21
  %26 = load ptr, ptr %9, align 8
  %27 = load i32, ptr %10, align 4
  %28 = insertvalue { ptr, i32 } poison, ptr %26, 0
  %29 = insertvalue { ptr, i32 } %28, i32 %27, 1
  resume { ptr, i32 } %29
}