; Function Attrs: mustprogress uwtable
define internal fastcc noundef ptr @_ZL16open_output_filePKciS0_(ptr noundef %0, i32 noundef %1, ptr noundef %2) unnamed_addr #9 personality ptr @__gxx_personality_v0 {
  %4 = alloca ptr, align 8
  %5 = alloca %"class.std::filesystem::__cxx11::path", align 8
  store ptr %0, ptr %4, align 8, !tbaa !150
  call void @llvm.lifetime.start.p0(i64 40, ptr nonnull %5) #26
  call void @_ZNSt10filesystem7__cxx114pathC2IPKcS1_EERKT_NS1_6formatE(ptr noundef nonnull align 8 dereferenceable(40) %5, ptr noundef nonnull align 8 dereferenceable(8) %4, i8 noundef zeroext 2)
  %6 = invoke noundef ptr @_Z10gmx_ffopenRKNSt10filesystem7__cxx114pathEPKc(ptr noundef nonnull align 8 dereferenceable(40) %5, ptr noundef nonnull @.str.38)
          to label %7 unwind label %22

7:                                                ; preds = %3
  %8 = getelementptr inbounds nuw i8, ptr %5, i64 32
  %9 = load ptr, ptr %8, align 8, !tbaa !125
  %.not.i.i.i = icmp eq ptr %9, null
  br i1 %.not.i.i.i, label %_ZNSt10filesystem7__cxx114path5_ListD2Ev.exit.i, label %10

10:                                               ; preds = %7
  call void @_ZNKSt10filesystem7__cxx114path5_List13_Impl_deleterclEPNS2_5_ImplE(ptr noundef nonnull align 8 dereferenceable(8) %8, ptr noundef nonnull %9) #26
  br label %_ZNSt10filesystem7__cxx114path5_ListD2Ev.exit.i

_ZNSt10filesystem7__cxx114path5_ListD2Ev.exit.i:  ; preds = %10, %7
  store ptr null, ptr %8, align 8, !tbaa !125
  %11 = load ptr, ptr %5, align 8, !tbaa !102
  %12 = getelementptr inbounds nuw i8, ptr %5, i64 16
  %13 = icmp eq ptr %11, %12
  br i1 %13, label %_ZNKSt7__cxx1112basic_stringIcSt11char_traitsIcESaIcEE11_M_is_localEv.exit.thread.i.i.i, label %_ZNKSt7__cxx1112basic_stringIcSt11char_traitsIcESaIcEE11_M_is_localEv.exit.i.i.i

_ZNKSt7__cxx1112basic_stringIcSt11char_traitsIcESaIcEE11_M_is_localEv.exit.thread.i.i.i: ; preds = %_ZNSt10filesystem7__cxx114path5_ListD2Ev.exit.i
  %14 = getelementptr inbounds nuw i8, ptr %5, i64 8
  %15 = load i64, ptr %14, align 8, !tbaa !124
  %16 = icmp ult i64 %15, 16
  call void @llvm.assume(i1 %16)
  br label %_ZNSt10filesystem7__cxx114pathD2Ev.exit

_ZNKSt7__cxx1112basic_stringIcSt11char_traitsIcESaIcEE11_M_is_localEv.exit.i.i.i: ; preds = %_ZNSt10filesystem7__cxx114path5_ListD2Ev.exit.i
  %17 = load i64, ptr %12, align 8, !tbaa !123
  %18 = add i64 %17, 1
  call void @_ZdlPvm(ptr noundef %11, i64 noundef %18) #28
  br label %_ZNSt10filesystem7__cxx114pathD2Ev.exit

_ZNSt10filesystem7__cxx114pathD2Ev.exit:          ; preds = %_ZNKSt7__cxx1112basic_stringIcSt11char_traitsIcESaIcEE11_M_is_localEv.exit.thread.i.i.i, %_ZNKSt7__cxx1112basic_stringIcSt11char_traitsIcESaIcEE11_M_is_localEv.exit.i.i.i
  call void @llvm.lifetime.end.p0(i64 40, ptr nonnull %5) #26
  %19 = icmp sgt i32 %1, 1
  %20 = select i1 %19, ptr @.str.40, ptr @.str.41
  %21 = call i32 (ptr, ptr, ...) @fprintf(ptr noundef %6, ptr noundef nonnull @.str.39, ptr noundef %2, i32 noundef %1, ptr noundef nonnull %20) #26
  ret ptr %6

22:                                               ; preds = %3
  %23 = landingpad { ptr, i32 }
          cleanup
  call void @_ZNSt10filesystem7__cxx114pathD2Ev(ptr noundef nonnull align 8 dereferenceable(40) %5) #26
  call void @llvm.lifetime.end.p0(i64 40, ptr nonnull %5) #26
  resume { ptr, i32 } %23
}